target datalayout = "e-m:e-p270:32:32-p271:32:32-p272:64:64-i64:64-i128:128-f80:128-n8:16:32:64-S128"
target triple = "x86_64-pc-linux-gnu"

%struct.Node = type { i32 }
%struct.Expr = type { i32 }
%struct.FuncExpr = type { %struct.Expr, i32, i32, i8, i8, i32, i32, i32, ptr, i32 }

; Function Attrs: inlinehint nounwind uwtable
define internal ptr @newNode(i64 noundef %0, i32 noundef %1) #2 {
  %3 = alloca i64, align 8
  %4 = alloca i32, align 4
  %5 = alloca ptr, align 8
  store i64 %0, ptr %3, align 8
  store i32 %1, ptr %4, align 4
  call void @llvm.lifetime.start.p0(i64 8, ptr %5) #6
  %6 = load i64, ptr %3, align 8
  %7 = call ptr @palloc0(i64 noundef %6)
  store ptr %7, ptr %5, align 8
  %8 = load i32, ptr %4, align 4
  %9 = load ptr, ptr %5, align 8
  %10 = getelementptr inbounds nuw %struct.Node, ptr %9, i32 0, i32 0
  store i32 %8, ptr %10, align 4
  %11 = load ptr, ptr %5, align 8
  call void @llvm.lifetime.end.p0(i64 8, ptr %5) #6
  ret ptr %11
}

; Function Attrs: nounwind uwtable
define dso_local ptr @makeFuncExpr(i32 noundef %0, i32 noundef %1, ptr noundef %2, i32 noundef %3, i32 noundef %4, i32 noundef %5) #0 {
  %7 = alloca i32, align 4
  %8 = alloca i32, align 4
  %9 = alloca ptr, align 8
  %10 = alloca i32, align 4
  %11 = alloca i32, align 4
  %12 = alloca i32, align 4
  %13 = alloca ptr, align 8
  store i32 %0, ptr %7, align 4
  store i32 %1, ptr %8, align 4
  store ptr %2, ptr %9, align 8
  store i32 %3, ptr %10, align 4
  store i32 %4, ptr %11, align 4
  store i32 %5, ptr %12, align 4
  call void @llvm.lifetime.start.p0(i64 8, ptr %13) #6
  %14 = call ptr @newNode(i64 noundef 48, i32 noundef 15)
  store ptr %14, ptr %13, align 8
  %15 = load i32, ptr %7, align 4
  %16 = load ptr, ptr %13, align 8
  %17 = getelementptr inbounds nuw %struct.FuncExpr, ptr %16, i32 0, i32 1
  store i32 %15, ptr %17, align 4
  %18 = load i32, ptr %8, align 4
  %19 = load ptr, ptr %13, align 8
  %20 = getelementptr inbounds nuw %struct.FuncExpr, ptr %19, i32 0, i32 2
  store i32 %18, ptr %20, align 8
  %21 = load ptr, ptr %13, align 8
  %22 = getelementptr inbounds nuw %struct.FuncExpr, ptr %21, i32 0, i32 3
  store i8 0, ptr %22, align 4
  %23 = load ptr, ptr %13, align 8
  %24 = getelementptr inbounds nuw %struct.FuncExpr, ptr %23, i32 0, i32 4
  store i8 0, ptr %24, align 1
  %25 = load i32, ptr %12, align 4
  %26 = load ptr, ptr %13, align 8
  %27 = getelementptr inbounds nuw %struct.FuncExpr, ptr %26, i32 0, i32 5
  store i32 %25, ptr %27, align 8
  %28 = load i32, ptr %10, align 4
  %29 = load ptr, ptr %13, align 8
  %30 = getelementptr inbounds nuw %struct.FuncExpr, ptr %29, i32 0, i32 6
  store i32 %28, ptr %30, align 4
  %31 = load i32, ptr %11, align 4
  %32 = load ptr, ptr %13, align 8
  %33 = getelementptr inbounds nuw %struct.FuncExpr, ptr %32, i32 0, i32 7
  store i32 %31, ptr %33, align 8
  %34 = load ptr, ptr %9, align 8
  %35 = load ptr, ptr %13, align 8
  %36 = getelementptr inbounds nuw %struct.FuncExpr, ptr %35, i32 0, i32 8
  store ptr %34, ptr %36, align 8
  %37 = load ptr, ptr %13, align 8
  %38 = getelementptr inbounds nuw %struct.FuncExpr, ptr %37, i32 0, i32 9
  store i32 -1, ptr %38, align 8
  %39 = load ptr, ptr %13, align 8
  call void @llvm.lifetime.end.p0(i64 8, ptr %13) #6
  ret ptr %39
}